target datalayout = "e-m:e-p270:32:32-p271:32:32-p272:64:64-i64:64-i128:128-f80:128-n8:16:32:64-S128"
target triple = "x86_64-pc-linux-gnu"

%"struct.std::atomic.0" = type { %"struct.std::__atomic_base.1" }
%"struct.std::__atomic_base.1" = type { i32 }
%"class.enki::ICompletable" = type { ptr, i32, %"struct.std::atomic.0", %"struct.std::atomic.0", i32, %"struct.std::atomic.0", ptr }
%"class.enki::Dependency" = type { ptr, ptr, ptr }

; Function Attrs: mustprogress nounwind uwtable
define dso_local void @_ZN4enki10DependencyC2EPKNS_12ICompletableEPS1_(ptr noundef nonnull align 8 dereferenceable(24) %0, ptr noundef %1, ptr noundef %2) unnamed_addr #5 align 2 {
  %4 = alloca ptr, align 8
  %5 = alloca ptr, align 8
  %6 = alloca ptr, align 8
  store ptr %0, ptr %4, align 8, !tbaa !139
  store ptr %1, ptr %5, align 8, !tbaa !54
  store ptr %2, ptr %6, align 8, !tbaa !54
  %7 = load ptr, ptr %4, align 8
  %8 = getelementptr inbounds nuw %"class.enki::Dependency", ptr %7, i32 0, i32 0
  %9 = load ptr, ptr %6, align 8, !tbaa !54
  store ptr %9, ptr %8, align 8, !tbaa !140
  %10 = getelementptr inbounds nuw %"class.enki::Dependency", ptr %7, i32 0, i32 1
  %11 = load ptr, ptr %5, align 8, !tbaa !54
  store ptr %11, ptr %10, align 8, !tbaa !187
  %12 = getelementptr inbounds nuw %"class.enki::Dependency", ptr %7, i32 0, i32 2
  %13 = getelementptr inbounds nuw %"class.enki::Dependency", ptr %7, i32 0, i32 1
  %14 = load ptr, ptr %13, align 8, !tbaa !187
  %15 = getelementptr inbounds nuw %"class.enki::ICompletable", ptr %14, i32 0, i32 6
  %16 = load ptr, ptr %15, align 8, !tbaa !138
  store ptr %16, ptr %12, align 8, !tbaa !143
  %17 = getelementptr inbounds nuw %"class.enki::Dependency", ptr %7, i32 0, i32 1
  %18 = load ptr, ptr %17, align 8, !tbaa !187
  %19 = getelementptr inbounds nuw %"class.enki::ICompletable", ptr %18, i32 0, i32 6
  store ptr %7, ptr %19, align 8, !tbaa !138
  %20 = getelementptr inbounds nuw %"class.enki::Dependency", ptr %7, i32 0, i32 0
  %21 = load ptr, ptr %20, align 8, !tbaa !140
  %22 = getelementptr inbounds nuw %"class.enki::ICompletable", ptr %21, i32 0, i32 4
  %23 = load i32, ptr %22, align 4, !tbaa !142
  %24 = add nsw i32 %23, 1
  store i32 %24, ptr %22, align 4, !tbaa !142
  ret void
}