; Function Attrs: mustprogress nofree norecurse nosync nounwind willreturn memory(argmem: readwrite) uwtable
define dso_local void @_ZN4enki10DependencyC2EPKNS_12ICompletableEPS1_(ptr noundef nonnull align 8 dereferenceable(24) initializes((0, 24)) %0, ptr noundef %1, ptr noundef %2) unnamed_addr #18 align 2 {
  store ptr %2, ptr %0, align 8, !tbaa !35
  %4 = getelementptr inbounds nuw i8, ptr %0, i64 8
  store ptr %1, ptr %4, align 8, !tbaa !143
  %5 = getelementptr inbounds nuw i8, ptr %0, i64 16
  %6 = getelementptr inbounds nuw i8, ptr %1, i64 32
  %7 = load ptr, ptr %6, align 8, !tbaa !30
  store ptr %7, ptr %5, align 8, !tbaa !39
  store ptr %0, ptr %6, align 8, !tbaa !30
  %8 = getelementptr inbounds nuw i8, ptr %2, i64 20
  %9 = load i32, ptr %8, align 4, !tbaa !38
  %10 = add nsw i32 %9, 1
  store i32 %10, ptr %8, align 4, !tbaa !38
  ret void
}